; Function Attrs: nounwind uwtable
define hidden range(i32 -1, 1) i32 @mbedtls_ssl_check_timer(ptr noundef %0) local_unnamed_addr #0 {
  %2 = getelementptr inbounds nuw i8, ptr %0, i64 176
  %3 = load ptr, ptr %2, align 8, !tbaa !17
  %4 = icmp eq ptr %3, null
  br i1 %4, label %11, label %5

5:                                                ; preds = %1
  %6 = getelementptr inbounds nuw i8, ptr %0, i64 160
  %7 = load ptr, ptr %6, align 8, !tbaa !16
  %8 = tail call i32 %3(ptr noundef %7) #19
  %9 = icmp eq i32 %8, 2
  br i1 %9, label %10, label %11

10:                                               ; preds = %5
  tail call void (ptr, i32, ptr, i32, ptr, ...) @mbedtls_debug_print_msg(ptr noundef nonnull %0, i32 noundef 3, ptr noundef nonnull @.str, i32 noundef 305, ptr noundef nonnull @.str.2) #19
  br label %11

11:                                               ; preds = %5, %1, %10
  %.0 = phi i32 [ -1, %10 ], [ 0, %1 ], [ 0, %5 ]
  ret i32 %.0
}